target datalayout = "e-m:e-p270:32:32-p271:32:32-p272:64:64-i64:64-i128:128-f80:128-n8:16:32:64-S128"
target triple = "x86_64-pc-linux-gnu"

%class.LibRaw = type { ptr, %struct.libraw_data_t, ptr, %struct.libraw_internal_data_t, [2048 x %struct.decode], ptr, ptr, [10 x %struct.tiff_ifd_t], %class.libraw_memmgr, %struct.libraw_callbacks_t, { i64, i64 }, { i64, i64 }, { i64, i64 }, ptr, ptr, ptr, i64, ptr, ptr, ptr, ptr }
%struct.libraw_data_t = type { ptr, %struct.libraw_image_sizes_t, %struct.libraw_iparams_t, %struct.libraw_lensinfo_t, %struct.libraw_makernotes_t, %struct.libraw_shootinginfo_t, %struct.libraw_output_params_t, %struct.libraw_raw_unpack_params_t, i32, i32, %struct.libraw_colordata_t, %struct.libraw_imgother_t, %struct.libraw_thumbnail_t, %struct.libraw_thumbnail_list_t, %struct.libraw_rawdata_t, ptr }
%struct.libraw_image_sizes_t = type { i16, i16, i16, i16, i16, i16, i16, i16, i32, double, i32, [8 x [4 x i32]], i16, [2 x %struct.libraw_raw_inset_crop_t] }
%struct.libraw_raw_inset_crop_t = type { i16, i16, i16, i16 }
%struct.libraw_iparams_t = type { [4 x i8], [64 x i8], [64 x i8], [64 x i8], [64 x i8], [64 x i8], i32, i32, i32, i32, i32, i32, [6 x [6 x i8]], [6 x [6 x i8]], [5 x i8], i32, ptr }
%struct.libraw_lensinfo_t = type { float, float, float, float, float, [128 x i8], [128 x i8], [128 x i8], [128 x i8], i16, %struct.libraw_nikonlens_t, %struct.libraw_dnglens_t, %struct.libraw_makernotes_lens_t }
%struct.libraw_nikonlens_t = type { float, i8, i8, i8, i8 }
%struct.libraw_dnglens_t = type { float, float, float, float }
%struct.libraw_makernotes_lens_t = type { i64, [128 x i8], i16, i16, i64, i16, i16, [64 x i8], i16, [16 x i8], [16 x i8], float, float, float, float, float, float, float, float, float, float, float, float, float, float, float, i64, [128 x i8], i64, [128 x i8], i64, [128 x i8], i16, float }
%struct.libraw_makernotes_t = type { %struct.libraw_canon_makernotes_t, %struct.libraw_nikon_makernotes_t, %struct.libraw_hasselblad_makernotes_t, %struct.libraw_fuji_info_t, %struct.libraw_olympus_makernotes_t, %struct.libraw_sony_info_t, %struct.libraw_kodak_makernotes_t, %struct.libraw_panasonic_makernotes_t, %struct.libraw_pentax_makernotes_t, %struct.libraw_p1_makernotes_t, %struct.libraw_ricoh_makernotes_t, %struct.libraw_samsung_makernotes_t, %struct.libraw_metadata_common_t }
%struct.libraw_canon_makernotes_t = type { i32, i32, i32, i32, [4 x i32], i32, [4 x i32], i16, i16, i8, i16, i16, i16, i16, i16, i16, i16, i16, i16, i16, i16, i16, i16, i32, float, i16, i16, i16, i32, i16, i32, i32, i16, i32, %struct.libraw_area_t, %struct.libraw_area_t, %struct.libraw_area_t, %struct.libraw_area_t, %struct.libraw_area_t, [2 x i16] }
%struct.libraw_area_t = type { i16, i16, i16, i16 }
%struct.libraw_nikon_makernotes_t = type { double, i16, i16, [7 x i8], i8, i8, [13 x i8], [20 x i8], [4 x i8], [4 x i8], [4 x i8], i8, i8, i8, i8, i8, [2 x i8], i8, i8, i8, i8, i8, [4 x i8], [4 x i8], i8, i16, i32, i32, i32, i32, [4 x double], i8, i8, i8, i32, i32, i32, i8, [4 x i16], i16, %struct.libraw_sensor_highspeed_crop_t, i16, i16, i16, i32, [20 x i8], [20 x i8], i32, i16, double, double, double }
%struct.libraw_sensor_highspeed_crop_t = type { i16, i16, i16, i16 }
%struct.libraw_hasselblad_makernotes_t = type { i32, double, [8 x i8], [64 x i8], [64 x i8], i32, i32, i32, i32, [32 x i8], [64 x i8], i32, [2 x i32], [2 x i32], [4 x [3 x double]] }
%struct.libraw_fuji_info_t = type { float, i16, i16, i16, i16, i16, i16, i16, i16, [33 x i8], [33 x i8], float, i16, i16, [2 x i16], i16, i32, i32, i16, [3 x i16], i16, i16, i16, i16, i16, i32, i16, [13 x i8], [5 x i8], [5 x i8], i32, i16, i32, i16, [9 x i16], [32 x i32], i32, i32, i32, [2 x float], i32 }
%struct.libraw_olympus_makernotes_t = type { [6 x i8], i16, [2 x i32], [5 x i16], i16, [2 x i16], i16, i16, [64 x i32], [5 x double], i16, i8, [3 x i16], [3 x i32], i16, i16, i16, i16, double, [4 x i16], [2 x i32], i8, i32, i16, i16 }
%struct.libraw_sony_info_t = type { i16, i8, i8, i32, i8, i32, i8, i8, i16, [2 x i16], i8, i8, i16, [10 x i8], i8, i8, [4 x i16], i16, i8, i8, i8, i16, i32, i16, [2 x i16], i16, i16, i16, i16, i16, i16, i16, i32, float, i16, i32, i32, i16, [20 x i8], i32, i16, i32, i8, i8, i16, i16, i16, i16, i16, i16, i16, i16, i16, i32, i16, [16 x i8], float }
%struct.libraw_kodak_makernotes_t = type { i16, i16, i16, i16, i16, i16, [3 x [3 x float]], [3 x [3 x float]], [3 x [3 x float]], [3 x [3 x float]], [3 x [3 x float]], [3 x [3 x float]], i16, i16, i16, i16, float, float }
%struct.libraw_panasonic_makernotes_t = type { i16, i16, [8 x float], i32, float, [3 x i32], i16, i16, i32, i32 }
%struct.libraw_pentax_makernotes_t = type { [4 x i8], [2 x i16], [2 x i16], i16, i32, i32, i16, i16, i8, i8, i16 }
%struct.libraw_p1_makernotes_t = type { [64 x i8], [64 x i8], [256 x i8], [64 x i8] }
%struct.libraw_ricoh_makernotes_t = type { i16, [2 x i32], [2 x i32], i16, i32, i32, i32, i32, i16, i16, i16, i16, i16, i16, double, double }
%struct.libraw_samsung_makernotes_t = type { [4 x i32], [4 x i32], [2 x i32], [11 x i32], double, i32, [32 x i8] }
%struct.libraw_metadata_common_t = type { float, float, float, float, float, float, float, float, float, float, float, float, float, float, float, float, i16, [128 x i8], float, [4 x %struct.libraw_afinfo_item_t], i32 }
%struct.libraw_afinfo_item_t = type { i32, i16, i32, i32, ptr }
%struct.libraw_shootinginfo_t = type { i16, i16, i16, i16, i16, i16, i16, [64 x i8], [64 x i8] }
%struct.libraw_output_params_t = type { [4 x i32], [4 x i32], [4 x double], [6 x double], [4 x float], float, float, i32, i32, i32, i32, i32, i32, i32, ptr, ptr, ptr, ptr, i32, i32, i32, i32, i32, i32, [4 x i32], i32, i32, float, float, i32, i32, i32, i32, i32, i32, i32, i32, float, float, i32, i32 }
%struct.libraw_raw_unpack_params_t = type { i32, i32, i32, i32, i32, i32, i32, float, [5 x i8], ptr }
%struct.libraw_colordata_t = type { [65536 x i16], [4104 x i32], i32, i32, i32, [4 x i64], float, float, [8 x [8 x i16]], [4 x float], [4 x float], [3 x [4 x float]], [3 x [4 x float]], [3 x [4 x float]], [4 x [3 x float]], %struct.ph1_t, float, float, [64 x i8], [64 x i8], [64 x i8], [64 x i8], [17 x i8], [64 x i8], ptr, i32, [8 x i32], [2 x %struct.libraw_dng_color_t], %struct.libraw_dng_levels_t, [256 x [4 x i32]], [64 x [5 x float]], i32, [2 x %struct.libraw_P1_color_t], i32, i32 }
%struct.ph1_t = type { i32, i32, i32, i32, i32, i32, i32, i32, float }
%struct.libraw_dng_color_t = type { i32, i16, [4 x [4 x float]], [4 x [3 x float]], [3 x [4 x float]] }
%struct.libraw_dng_levels_t = type { i32, [4104 x i32], i32, [4104 x float], float, [4 x i32], [4 x i16], [4 x float], i32, [4 x float], [4 x float], float, float }
%struct.libraw_P1_color_t = type { [9 x float] }
%struct.libraw_imgother_t = type { float, float, float, float, i64, i32, [32 x i32], %struct.libraw_gps_info_t, [512 x i8], [64 x i8], [4 x float] }
%struct.libraw_gps_info_t = type { [3 x float], [3 x float], [3 x float], float, i8, i8, i8, i8, i8 }
%struct.libraw_thumbnail_t = type { i32, i16, i16, i32, i32, ptr }
%struct.libraw_thumbnail_list_t = type { i32, [8 x %struct.libraw_thumbnail_item_t] }
%struct.libraw_thumbnail_item_t = type { i32, i16, i16, i16, i32, i32, i64 }
%struct.libraw_rawdata_t = type { ptr, ptr, ptr, ptr, ptr, ptr, ptr, ptr, ptr, %struct.libraw_iparams_t, %struct.libraw_image_sizes_t, %struct.libraw_internal_output_params_t, %struct.libraw_colordata_t }
%struct.libraw_internal_output_params_t = type { i32, i32, i32, i16, i16 }
%struct.libraw_internal_data_t = type { %struct.internal_data_t, %struct.libraw_internal_output_params_t, %struct.output_data_t, %struct.identify_data_t, %struct.unpacker_data_t }
%struct.internal_data_t = type { ptr, ptr, i32, ptr, i64, i64, [4 x i32] }
%struct.output_data_t = type { ptr, ptr }
%struct.identify_data_t = type { i32, i64, i64, i32, i32, i32 }
%struct.unpacker_data_t = type { i16, [4 x i16], [3 x i16], i32, i64, i64, i64, i64, i64, i64, i32, i32, i32, i32, i32, i32, i32, i32, i32, i32, i32, i32, i32, i32, i32, i32, i32, i64, i32, i32, i32, i32, i32, i32, i32, i32, i32, %struct.pana8_tags_t, [16 x %struct.crx_data_header_t], i32, i32, i16, i16, i32, i32, i32, i32, i32, i32, i32, [20 x i32], i16 }
%struct.pana8_tags_t = type { [6 x i32], [6 x i16], i16, [4 x i16], [17 x i16], [17 x i16], [17 x i16], i16, i16, [5 x i64], [5 x i16], [5 x i32], [5 x i16], [5 x i16] }
%struct.crx_data_header_t = type { i32, i32, i32, i32, i32, i32, i32, i32, i32, i32, i32, i32, i32, i32, i32, i64, i32, ptr, i32, i32, i32, ptr, i32, ptr }
%struct.decode = type { [2 x ptr], i32 }
%struct.tiff_ifd_t = type { i32, i32, i32, i32, i32, i32, i32, i32, i32, i32, i32, i32, i32, i32, i32, ptr, i32, ptr, i32, i32, i32, i32, i32, i32, i32, float, i64, i64, i32, [2 x %struct.libraw_dng_color_t], %struct.libraw_dng_levels_t, i32 }
%class.libraw_memmgr = type <{ ptr, i32, [4 x i8] }>
%struct.libraw_callbacks_t = type { ptr, ptr, ptr, ptr, ptr, ptr, ptr, ptr, ptr, ptr, ptr, ptr, ptr, ptr, ptr, ptr, ptr }

; Function Attrs: mustprogress nounwind uwtable
define linkonce_odr noundef i32 @_ZN6LibRaw2FCEii(ptr noundef nonnull align 8 dereferenceable(767680) %0, i32 noundef %1, i32 noundef %2) #2 comdat align 2 {
  %4 = alloca ptr, align 8
  %5 = alloca i32, align 4
  %6 = alloca i32, align 4
  store ptr %0, ptr %4, align 8, !tbaa !6
  store i32 %1, ptr %5, align 4, !tbaa !74
  store i32 %2, ptr %6, align 4, !tbaa !74
  %7 = load ptr, ptr %4, align 8
  %8 = getelementptr inbounds nuw %class.LibRaw, ptr %7, i32 0, i32 1
  %9 = getelementptr inbounds nuw %struct.libraw_data_t, ptr %8, i32 0, i32 2
  %10 = getelementptr inbounds nuw %struct.libraw_iparams_t, ptr %9, i32 0, i32 11
  %11 = load i32, ptr %10, align 8, !tbaa !82
  %12 = load i32, ptr %5, align 4, !tbaa !74
  %13 = shl i32 %12, 1
  %14 = and i32 %13, 14
  %15 = load i32, ptr %6, align 4, !tbaa !74
  %16 = and i32 %15, 1
  %17 = or i32 %14, %16
  %18 = shl i32 %17, 1
  %19 = lshr i32 %11, %18
  %20 = and i32 %19, 3
  ret i32 %20
}

; Function Attrs: mustprogress uwtable
define void @_ZN6LibRaw7dcb_horEPA3_f(ptr noundef nonnull align 8 dereferenceable(767680) %0, ptr noundef %1) #0 align 2 {
  %3 = alloca ptr, align 8
  %4 = alloca ptr, align 8
  %5 = alloca i32, align 4
  %6 = alloca i32, align 4
  %7 = alloca i32, align 4
  %8 = alloca i32, align 4
  store ptr %0, ptr %3, align 8, !tbaa !6
  store ptr %1, ptr %4, align 8, !tbaa !11
  %9 = load ptr, ptr %3, align 8
  call void @llvm.lifetime.start.p0(i64 4, ptr %5) #6
  call void @llvm.lifetime.start.p0(i64 4, ptr %6) #6
  call void @llvm.lifetime.start.p0(i64 4, ptr %7) #6
  %10 = getelementptr inbounds nuw %class.LibRaw, ptr %9, i32 0, i32 1
  %11 = getelementptr inbounds nuw %struct.libraw_data_t, ptr %10, i32 0, i32 1
  %12 = getelementptr inbounds nuw %struct.libraw_image_sizes_t, ptr %11, i32 0, i32 3
  %13 = load i16, ptr %12, align 2, !tbaa !13
  %14 = zext i16 %13 to i32
  store i32 %14, ptr %7, align 4, !tbaa !74
  call void @llvm.lifetime.start.p0(i64 4, ptr %8) #6
  store i32 2, ptr %5, align 4, !tbaa !74
  br label %15

15:                                               ; preds = %167, %2
  %16 = load i32, ptr %5, align 4, !tbaa !74
  %17 = getelementptr inbounds nuw %class.LibRaw, ptr %9, i32 0, i32 1
  %18 = getelementptr inbounds nuw %struct.libraw_data_t, ptr %17, i32 0, i32 1
  %19 = getelementptr inbounds nuw %struct.libraw_image_sizes_t, ptr %18, i32 0, i32 2
  %20 = load i16, ptr %19, align 4, !tbaa !75
  %21 = zext i16 %20 to i32
  %22 = sub nsw i32 %21, 2
  %23 = icmp slt i32 %16, %22
  br i1 %23, label %24, label %170

24:                                               ; preds = %15
  %25 = load i32, ptr %5, align 4, !tbaa !74
  %26 = call noundef i32 @_ZN6LibRaw2FCEii(ptr noundef nonnull align 8 dereferenceable(767680) %9, i32 noundef %25, i32 noundef 2)
  %27 = and i32 %26, 1
  %28 = add nsw i32 2, %27
  store i32 %28, ptr %6, align 4, !tbaa !74
  %29 = load i32, ptr %5, align 4, !tbaa !74
  %30 = getelementptr inbounds nuw %class.LibRaw, ptr %9, i32 0, i32 1
  %31 = getelementptr inbounds nuw %struct.libraw_data_t, ptr %30, i32 0, i32 1
  %32 = getelementptr inbounds nuw %struct.libraw_image_sizes_t, ptr %31, i32 0, i32 3
  %33 = load i16, ptr %32, align 2, !tbaa !13
  %34 = zext i16 %33 to i32
  %35 = mul nsw i32 %29, %34
  %36 = load i32, ptr %6, align 4, !tbaa !74
  %37 = add nsw i32 %35, %36
  store i32 %37, ptr %8, align 4, !tbaa !74
  br label %38

38:                                               ; preds = %161, %24
  %39 = load i32, ptr %6, align 4, !tbaa !74
  %40 = load i32, ptr %7, align 4, !tbaa !74
  %41 = sub nsw i32 %40, 2
  %42 = icmp slt i32 %39, %41
  br i1 %42, label %43, label %166

43:                                               ; preds = %38
  %44 = getelementptr inbounds nuw %class.LibRaw, ptr %9, i32 0, i32 1
  %45 = getelementptr inbounds nuw %struct.libraw_data_t, ptr %44, i32 0, i32 0
  %46 = load ptr, ptr %45, align 8, !tbaa !76
  %47 = load i32, ptr %8, align 4, !tbaa !74
  %48 = add nsw i32 %47, 1
  %49 = sext i32 %48 to i64
  %50 = getelementptr inbounds [4 x i16], ptr %46, i64 %49
  %51 = getelementptr inbounds [4 x i16], ptr %50, i64 0, i64 1
  %52 = load i16, ptr %51, align 2, !tbaa !77
  %53 = zext i16 %52 to i32
  %54 = getelementptr inbounds nuw %class.LibRaw, ptr %9, i32 0, i32 1
  %55 = getelementptr inbounds nuw %struct.libraw_data_t, ptr %54, i32 0, i32 0
  %56 = load ptr, ptr %55, align 8, !tbaa !76
  %57 = load i32, ptr %8, align 4, !tbaa !74
  %58 = sub nsw i32 %57, 1
  %59 = sext i32 %58 to i64
  %60 = getelementptr inbounds [4 x i16], ptr %56, i64 %59
  %61 = getelementptr inbounds [4 x i16], ptr %60, i64 0, i64 1
  %62 = load i16, ptr %61, align 2, !tbaa !77
  %63 = zext i16 %62 to i32
  %64 = add nsw i32 %53, %63
  %65 = sitofp i32 %64 to double
  %66 = fdiv reassoc nsz arcp contract afn double %65, 2.000000e+00
  %67 = fptosi double %66 to i32
  %68 = icmp slt i32 %67, 65535
  br i1 %68, label %69, label %94

69:                                               ; preds = %43
  %70 = getelementptr inbounds nuw %class.LibRaw, ptr %9, i32 0, i32 1
  %71 = getelementptr inbounds nuw %struct.libraw_data_t, ptr %70, i32 0, i32 0
  %72 = load ptr, ptr %71, align 8, !tbaa !76
  %73 = load i32, ptr %8, align 4, !tbaa !74
  %74 = add nsw i32 %73, 1
  %75 = sext i32 %74 to i64
  %76 = getelementptr inbounds [4 x i16], ptr %72, i64 %75
  %77 = getelementptr inbounds [4 x i16], ptr %76, i64 0, i64 1
  %78 = load i16, ptr %77, align 2, !tbaa !77
  %79 = zext i16 %78 to i32
  %80 = getelementptr inbounds nuw %class.LibRaw, ptr %9, i32 0, i32 1
  %81 = getelementptr inbounds nuw %struct.libraw_data_t, ptr %80, i32 0, i32 0
  %82 = load ptr, ptr %81, align 8, !tbaa !76
  %83 = load i32, ptr %8, align 4, !tbaa !74
  %84 = sub nsw i32 %83, 1
  %85 = sext i32 %84 to i64
  %86 = getelementptr inbounds [4 x i16], ptr %82, i64 %85
  %87 = getelementptr inbounds [4 x i16], ptr %86, i64 0, i64 1
  %88 = load i16, ptr %87, align 2, !tbaa !77
  %89 = zext i16 %88 to i32
  %90 = add nsw i32 %79, %89
  %91 = sitofp i32 %90 to double
  %92 = fdiv reassoc nsz arcp contract afn double %91, 2.000000e+00
  %93 = fptosi double %92 to i32
  br label %95

94:                                               ; preds = %43
  br label %95

95:                                               ; preds = %94, %69
  %96 = phi i32 [ %93, %69 ], [ 65535, %94 ]
  %97 = icmp sgt i32 0, %96
  br i1 %97, label %98, label %99

98:                                               ; preds = %95
  br label %153

99:                                               ; preds = %95
  %100 = getelementptr inbounds nuw %class.LibRaw, ptr %9, i32 0, i32 1
  %101 = getelementptr inbounds nuw %struct.libraw_data_t, ptr %100, i32 0, i32 0
  %102 = load ptr, ptr %101, align 8, !tbaa !76
  %103 = load i32, ptr %8, align 4, !tbaa !74
  %104 = add nsw i32 %103, 1
  %105 = sext i32 %104 to i64
  %106 = getelementptr inbounds [4 x i16], ptr %102, i64 %105
  %107 = getelementptr inbounds [4 x i16], ptr %106, i64 0, i64 1
  %108 = load i16, ptr %107, align 2, !tbaa !77
  %109 = zext i16 %108 to i32
  %110 = getelementptr inbounds nuw %class.LibRaw, ptr %9, i32 0, i32 1
  %111 = getelementptr inbounds nuw %struct.libraw_data_t, ptr %110, i32 0, i32 0
  %112 = load ptr, ptr %111, align 8, !tbaa !76
  %113 = load i32, ptr %8, align 4, !tbaa !74
  %114 = sub nsw i32 %113, 1
  %115 = sext i32 %114 to i64
  %116 = getelementptr inbounds [4 x i16], ptr %112, i64 %115
  %117 = getelementptr inbounds [4 x i16], ptr %116, i64 0, i64 1
  %118 = load i16, ptr %117, align 2, !tbaa !77
  %119 = zext i16 %118 to i32
  %120 = add nsw i32 %109, %119
  %121 = sitofp i32 %120 to double
  %122 = fdiv reassoc nsz arcp contract afn double %121, 2.000000e+00
  %123 = fptosi double %122 to i32
  %124 = icmp slt i32 %123, 65535
  br i1 %124, label %125, label %150

125:                                              ; preds = %99
  %126 = getelementptr inbounds nuw %class.LibRaw, ptr %9, i32 0, i32 1
  %127 = getelementptr inbounds nuw %struct.libraw_data_t, ptr %126, i32 0, i32 0
  %128 = load ptr, ptr %127, align 8, !tbaa !76
  %129 = load i32, ptr %8, align 4, !tbaa !74
  %130 = add nsw i32 %129, 1
  %131 = sext i32 %130 to i64
  %132 = getelementptr inbounds [4 x i16], ptr %128, i64 %131
  %133 = getelementptr inbounds [4 x i16], ptr %132, i64 0, i64 1
  %134 = load i16, ptr %133, align 2, !tbaa !77
  %135 = zext i16 %134 to i32
  %136 = getelementptr inbounds nuw %class.LibRaw, ptr %9, i32 0, i32 1
  %137 = getelementptr inbounds nuw %struct.libraw_data_t, ptr %136, i32 0, i32 0
  %138 = load ptr, ptr %137, align 8, !tbaa !76
  %139 = load i32, ptr %8, align 4, !tbaa !74
  %140 = sub nsw i32 %139, 1
  %141 = sext i32 %140 to i64
  %142 = getelementptr inbounds [4 x i16], ptr %138, i64 %141
  %143 = getelementptr inbounds [4 x i16], ptr %142, i64 0, i64 1
  %144 = load i16, ptr %143, align 2, !tbaa !77
  %145 = zext i16 %144 to i32
  %146 = add nsw i32 %135, %145
  %147 = sitofp i32 %146 to double
  %148 = fdiv reassoc nsz arcp contract afn double %147, 2.000000e+00
  %149 = fptosi double %148 to i32
  br label %151

150:                                              ; preds = %99
  br label %151

151:                                              ; preds = %150, %125
  %152 = phi i32 [ %149, %125 ], [ 65535, %150 ]
  br label %153

153:                                              ; preds = %151, %98
  %154 = phi i32 [ 0, %98 ], [ %152, %151 ]
  %155 = sitofp i32 %154 to float
  %156 = load ptr, ptr %4, align 8, !tbaa !11
  %157 = load i32, ptr %8, align 4, !tbaa !74
  %158 = sext i32 %157 to i64
  %159 = getelementptr inbounds [3 x float], ptr %156, i64 %158
  %160 = getelementptr inbounds [3 x float], ptr %159, i64 0, i64 1
  store float %155, ptr %160, align 4, !tbaa !78
  br label %161

161:                                              ; preds = %153
  %162 = load i32, ptr %6, align 4, !tbaa !74
  %163 = add nsw i32 %162, 2
  store i32 %163, ptr %6, align 4, !tbaa !74
  %164 = load i32, ptr %8, align 4, !tbaa !74
  %165 = add nsw i32 %164, 2
  store i32 %165, ptr %8, align 4, !tbaa !74
  br label %38, !llvm.loop !83

166:                                              ; preds = %38
  br label %167

167:                                              ; preds = %166
  %168 = load i32, ptr %5, align 4, !tbaa !74
  %169 = add nsw i32 %168, 1
  store i32 %169, ptr %5, align 4, !tbaa !74
  br label %15, !llvm.loop !84

170:                                              ; preds = %15
  call void @llvm.lifetime.end.p0(i64 4, ptr %8) #6
  call void @llvm.lifetime.end.p0(i64 4, ptr %7) #6
  call void @llvm.lifetime.end.p0(i64 4, ptr %6) #6
  call void @llvm.lifetime.end.p0(i64 4, ptr %5) #6
  ret void
}