; Function Attrs: mustprogress nofree norecurse nosync nounwind memory(read, argmem: readwrite, inaccessiblemem: none) uwtable
define void @_ZN6LibRaw7dcb_horEPA3_f(ptr noundef nonnull readonly align 8 captures(none) dereferenceable(767680) %0, ptr noundef writeonly captures(none) %1) local_unnamed_addr #0 align 2 {
  %3 = getelementptr inbounds nuw i8, ptr %0, i64 22
  %4 = load i16, ptr %3, align 2, !tbaa !6
  %5 = zext i16 %4 to i32
  %6 = getelementptr inbounds nuw i8, ptr %0, i64 20
  %7 = load i16, ptr %6, align 4, !tbaa !71
  %8 = icmp ugt i16 %7, 4
  br i1 %8, label %.lr.ph29, label %._crit_edge30

.lr.ph29:                                         ; preds = %2
  %9 = zext i16 %7 to i32
  %10 = getelementptr inbounds nuw i8, ptr %0, i64 8
  %11 = getelementptr inbounds nuw i8, ptr %0, i64 544
  %12 = load i32, ptr %11, align 8, !tbaa !72
  %13 = add nsw i32 %5, -2
  %14 = load ptr, ptr %10, align 8
  %15 = shl nuw nsw i32 %5, 1
  %16 = add nuw nsw i32 %15, 2
  %17 = add nsw i32 %9, -3
  br label %18

18:                                               ; preds = %.lr.ph29, %._crit_edge
  %indvars.iv = phi i32 [ %16, %.lr.ph29 ], [ %indvars.iv.next, %._crit_edge ]
  %.01927 = phi i32 [ 2, %.lr.ph29 ], [ %44, %._crit_edge ]
  %19 = shl i32 %.01927, 2
  %20 = and i32 %19, 28
  %21 = lshr i32 %12, %20
  %22 = and i32 %21, 1
  %23 = or disjoint i32 %22, 2
  %24 = icmp slt i32 %23, %13
  br i1 %24, label %.lr.ph.preheader, label %._crit_edge

.lr.ph.preheader:                                 ; preds = %18
  %25 = add i32 %indvars.iv, %22
  %26 = sext i32 %25 to i64
  br label %.lr.ph

.lr.ph:                                           ; preds = %.lr.ph.preheader, %.lr.ph
  %indvars.iv31 = phi i64 [ %26, %.lr.ph.preheader ], [ %indvars.iv.next32, %.lr.ph ]
  %.02025 = phi i32 [ %23, %.lr.ph.preheader ], [ %42, %.lr.ph ]
  %27 = add nuw nsw i64 %indvars.iv31, 1
  %28 = getelementptr inbounds nuw [4 x i16], ptr %14, i64 %27, i64 1
  %29 = load i16, ptr %28, align 2, !tbaa !73
  %30 = zext i16 %29 to i32
  %31 = add nsw i64 %indvars.iv31, -1
  %32 = getelementptr inbounds [4 x i16], ptr %14, i64 %31, i64 1
  %33 = load i16, ptr %32, align 2, !tbaa !73
  %34 = zext i16 %33 to i32
  %35 = add nuw nsw i32 %34, %30
  %36 = uitofp nneg i32 %35 to double
  %37 = fmul reassoc nsz arcp contract afn double %36, 5.000000e-01
  %38 = fptosi double %37 to i32
  %spec.select2324 = tail call i32 @llvm.smin.i32(i32 %38, i32 65535)
  %39 = tail call i32 @llvm.smax.i32(i32 %spec.select2324, i32 0)
  %40 = uitofp nneg i32 %39 to float
  %41 = getelementptr inbounds nuw [3 x float], ptr %1, i64 %indvars.iv31, i64 1
  store float %40, ptr %41, align 4, !tbaa !74
  %42 = add nuw nsw i32 %.02025, 2
  %indvars.iv.next32 = add nuw nsw i64 %indvars.iv31, 2
  %43 = icmp slt i32 %42, %13
  br i1 %43, label %.lr.ph, label %._crit_edge, !llvm.loop !78

._crit_edge:                                      ; preds = %.lr.ph, %18
  %44 = add nuw nsw i32 %.01927, 1
  %indvars.iv.next = add nuw i32 %indvars.iv, %5
  %exitcond.not = icmp eq i32 %.01927, %17
  br i1 %exitcond.not, label %._crit_edge30, label %18, !llvm.loop !79

._crit_edge30:                                    ; preds = %._crit_edge, %2
  ret void
}